; Function Attrs: mustprogress uwtable
define hidden noundef zeroext i1 @_ZNK4cvc58internal6theory11quantifiers17QuantifiersModule8areEqualENS0_12NodeTemplateILb0EEES5_(ptr noundef nonnull readonly align 8 captures(none) dereferenceable(48) %0, ptr noundef readonly captures(none) %1, ptr noundef readonly captures(none) %2) local_unnamed_addr #3 align 2 personality ptr @__gxx_personality_v0 {
  %4 = alloca %"class.cvc5::internal::NodeTemplate", align 8
  %5 = alloca %"class.cvc5::internal::NodeTemplate", align 8
  %6 = getelementptr inbounds nuw i8, ptr %0, i64 16
  %7 = load ptr, ptr %6, align 8, !tbaa !16
  %8 = load ptr, ptr %1, align 8, !tbaa !20
  store ptr %8, ptr %4, align 8, !tbaa !20
  %9 = load ptr, ptr %2, align 8, !tbaa !20
  store ptr %9, ptr %5, align 8, !tbaa !20
  %10 = load ptr, ptr %7, align 8, !tbaa !3
  %11 = getelementptr inbounds nuw i8, ptr %10, i64 40
  %12 = load ptr, ptr %11, align 8
  %13 = call noundef zeroext i1 %12(ptr noundef nonnull align 8 dereferenceable(160) %7, ptr noundef nonnull %4, ptr noundef nonnull %5)
  ret i1 %13
}